target datalayout = "e-m:e-p270:32:32-p271:32:32-p272:64:64-i64:64-i128:128-f80:128-n8:16:32:64-S128"
target triple = "x86_64-pc-linux-gnu"

@.str.419 = private unnamed_addr constant [29 x i8] c"ASAM Capture Module Protocol\00", align 1
@.str.420 = private unnamed_addr constant [9 x i8] c"ASAM CMP\00", align 1
@.str.421 = private unnamed_addr constant [9 x i8] c"asam-cmp\00", align 1
@proto_asam_cmp = internal global i32 0, align 4
@.str.422 = private unnamed_addr constant [17 x i8] c"ASAM CMP Devices\00", align 1
@.str.423 = private unnamed_addr constant [17 x i8] c"ASAM_CMP_devices\00", align 1
@asam_cmp_devices = internal global ptr null, align 8
@asam_cmp_devices_num = internal global i32 0, align 4
@.str.424 = private unnamed_addr constant [22 x i8] c"_udf_asam_cmp_devices\00", align 1
@.str.425 = private unnamed_addr constant [8 x i8] c"Devices\00", align 1
@.str.426 = private unnamed_addr constant [36 x i8] c"A table to define names of Devices.\00", align 1
@.str.427 = private unnamed_addr constant [20 x i8] c"ASAM CMP Interfaces\00", align 1
@.str.428 = private unnamed_addr constant [20 x i8] c"ASAM_CMP_interfaces\00", align 1
@asam_cmp_interfaces = internal global ptr null, align 8
@asam_cmp_interface_num = internal global i32 0, align 4
@.str.429 = private unnamed_addr constant [25 x i8] c"_udf_asam_cmp_interfaces\00", align 1
@.str.430 = private unnamed_addr constant [11 x i8] c"Interfaces\00", align 1
@.str.431 = private unnamed_addr constant [52 x i8] c"A table to define names and mappings of Interfaces.\00", align 1
@.str.432 = private unnamed_addr constant [20 x i8] c"try_heuristic_first\00", align 1
@.str.433 = private unnamed_addr constant [35 x i8] c"Try heuristic sub-dissectors first\00", align 1
@.str.434 = private unnamed_addr constant [111 x i8] c"Try to decode a packet using an heuristic sub-dissector before using a sub-dissector registered to \22decode as\22\00", align 1
@heuristic_first = internal global i8 0, align 1
@.str.435 = private unnamed_addr constant [27 x i8] c"use_old_canid_11bit_format\00", align 1
@.str.436 = private unnamed_addr constant [41 x i8] c"Use old encoding of 11bit CAN/CAN-FD IDs\00", align 1
@.str.437 = private unnamed_addr constant [45 x i8] c"Use the old encoding of 11bit CAN/CAN-FD IDs\00", align 1
@old_11bit_canid_encoding = internal global i8 0, align 1

; Function Attrs: null_pointer_is_valid sspstrong uwtable
define hidden void @proto_register_asam_cmp() #0 {
  %1 = alloca ptr, align 8
  %2 = alloca ptr, align 8
  %3 = alloca ptr, align 8
  %4 = alloca ptr, align 8
  call void @llvm.lifetime.start.p0(i64 8, ptr %1) #8
  store ptr null, ptr %1, align 8
  call void @llvm.lifetime.start.p0(i64 8, ptr %2) #8
  call void @llvm.lifetime.start.p0(i64 8, ptr %3) #8
  store ptr null, ptr %3, align 8
  call void @llvm.lifetime.start.p0(i64 8, ptr %4) #8
  store ptr null, ptr %4, align 8
  %5 = call i32 @proto_register_protocol(ptr noundef @.str.419, ptr noundef @.str.420, ptr noundef @.str.421)
  store i32 %5, ptr @proto_asam_cmp, align 4
  %6 = load i32, ptr @proto_asam_cmp, align 4
  call void @proto_register_field_array(i32 noundef %6, ptr noundef @proto_register_asam_cmp.hf, i32 noundef 247)
  call void @proto_register_subtree_array(ptr noundef @proto_register_asam_cmp.ett, i32 noundef 17)
  %7 = load i32, ptr @proto_asam_cmp, align 4
  %8 = call ptr @prefs_register_protocol(i32 noundef %7, ptr noundef null)
  store ptr %8, ptr %1, align 8
  %9 = load i32, ptr @proto_asam_cmp, align 4
  %10 = call ptr @expert_register_protocol(i32 noundef %9)
  store ptr %10, ptr %2, align 8
  %11 = load ptr, ptr %2, align 8
  call void @expert_register_field_array(ptr noundef %11, ptr noundef @proto_register_asam_cmp.ei, i32 noundef 2)
  %12 = call ptr @uat_new(ptr noundef @.str.422, i64 noundef 16, ptr noundef @.str.423, i1 noundef zeroext true, ptr noundef @asam_cmp_devices, ptr noundef @asam_cmp_devices_num, i32 noundef 1, ptr noundef null, ptr noundef @copy_generic_one_id_string_cb, ptr noundef @update_generic_one_identifier_16bit, ptr noundef @free_generic_one_id_string_cb, ptr noundef @post_update_asam_cmp_devices_cb, ptr noundef @reset_asam_cmp_devices_cb, ptr noundef @proto_register_asam_cmp.asam_cmp_device_id_uat_fields)
  store ptr %12, ptr %3, align 8
  %13 = load ptr, ptr %1, align 8
  %14 = load ptr, ptr %3, align 8
  call void @prefs_register_uat_preference(ptr noundef %13, ptr noundef @.str.424, ptr noundef @.str.425, ptr noundef @.str.426, ptr noundef %14)
  %15 = call ptr @uat_new(ptr noundef @.str.427, i64 noundef 16, ptr noundef @.str.428, i1 noundef zeroext true, ptr noundef @asam_cmp_interfaces, ptr noundef @asam_cmp_interface_num, i32 noundef 1, ptr noundef null, ptr noundef @copy_interface_config_cb, ptr noundef @update_interface_config, ptr noundef @free_interface_config_cb, ptr noundef @post_update_interface_config_cb, ptr noundef @reset_interface_config_cb, ptr noundef @proto_register_asam_cmp.asam_cmp_interface_id_uat_fields)
  store ptr %15, ptr %4, align 8
  %16 = load ptr, ptr %1, align 8
  %17 = load ptr, ptr %4, align 8
  call void @prefs_register_uat_preference(ptr noundef %16, ptr noundef @.str.429, ptr noundef @.str.430, ptr noundef @.str.431, ptr noundef %17)
  %18 = load ptr, ptr %1, align 8
  call void @prefs_register_bool_preference(ptr noundef %18, ptr noundef @.str.432, ptr noundef @.str.433, ptr noundef @.str.434, ptr noundef @heuristic_first)
  %19 = load ptr, ptr %1, align 8
  call void @prefs_register_bool_preference(ptr noundef %19, ptr noundef @.str.435, ptr noundef @.str.436, ptr noundef @.str.437, ptr noundef @old_11bit_canid_encoding)
  call void @llvm.lifetime.end.p0(i64 8, ptr %4) #8
  call void @llvm.lifetime.end.p0(i64 8, ptr %3) #8
  call void @llvm.lifetime.end.p0(i64 8, ptr %2) #8
  call void @llvm.lifetime.end.p0(i64 8, ptr %1) #8
  ret void
}