; Function Attrs: null_pointer_is_valid sspstrong uwtable
define hidden void @proto_register_asam_cmp() local_unnamed_addr #0 {
  %1 = tail call i32 @proto_register_protocol(ptr noundef nonnull @.str.419, ptr noundef nonnull @.str.420, ptr noundef nonnull @.str.421)
  store i32 %1, ptr @proto_asam_cmp, align 4
  tail call void @proto_register_field_array(i32 noundef %1, ptr noundef nonnull @proto_register_asam_cmp.hf, i32 noundef 247)
  tail call void @proto_register_subtree_array(ptr noundef nonnull @proto_register_asam_cmp.ett, i32 noundef 17)
  %2 = load i32, ptr @proto_asam_cmp, align 4
  %3 = tail call ptr @prefs_register_protocol(i32 noundef %2, ptr noundef null)
  %4 = load i32, ptr @proto_asam_cmp, align 4
  %5 = tail call ptr @expert_register_protocol(i32 noundef %4)
  tail call void @expert_register_field_array(ptr noundef %5, ptr noundef nonnull @proto_register_asam_cmp.ei, i32 noundef 2)
  %6 = tail call ptr @uat_new(ptr noundef nonnull @.str.422, i64 noundef 16, ptr noundef nonnull @.str.423, i1 noundef zeroext true, ptr noundef nonnull @asam_cmp_devices, ptr noundef nonnull @asam_cmp_devices_num, i32 noundef 1, ptr noundef null, ptr noundef nonnull @copy_generic_one_id_string_cb, ptr noundef nonnull @update_generic_one_identifier_16bit, ptr noundef nonnull @free_generic_one_id_string_cb, ptr noundef nonnull @post_update_asam_cmp_devices_cb, ptr noundef nonnull @reset_asam_cmp_devices_cb, ptr noundef nonnull @proto_register_asam_cmp.asam_cmp_device_id_uat_fields)
  tail call void @prefs_register_uat_preference(ptr noundef %3, ptr noundef nonnull @.str.424, ptr noundef nonnull @.str.425, ptr noundef nonnull @.str.426, ptr noundef %6)
  %7 = tail call ptr @uat_new(ptr noundef nonnull @.str.427, i64 noundef 16, ptr noundef nonnull @.str.428, i1 noundef zeroext true, ptr noundef nonnull @asam_cmp_interfaces, ptr noundef nonnull @asam_cmp_interface_num, i32 noundef 1, ptr noundef null, ptr noundef nonnull @copy_interface_config_cb, ptr noundef nonnull @update_interface_config, ptr noundef nonnull @free_interface_config_cb, ptr noundef nonnull @post_update_interface_config_cb, ptr noundef nonnull @reset_interface_config_cb, ptr noundef nonnull @proto_register_asam_cmp.asam_cmp_interface_id_uat_fields)
  tail call void @prefs_register_uat_preference(ptr noundef %3, ptr noundef nonnull @.str.429, ptr noundef nonnull @.str.430, ptr noundef nonnull @.str.431, ptr noundef %7)
  tail call void @prefs_register_bool_preference(ptr noundef %3, ptr noundef nonnull @.str.432, ptr noundef nonnull @.str.433, ptr noundef nonnull @.str.434, ptr noundef nonnull @heuristic_first)
  tail call void @prefs_register_bool_preference(ptr noundef %3, ptr noundef nonnull @.str.435, ptr noundef nonnull @.str.436, ptr noundef nonnull @.str.437, ptr noundef nonnull @old_11bit_canid_encoding)
  ret void
}